; Function Attrs: mustprogress uwtable
define noundef i32 @_ZN3zmq6peer_t12connect_peerEPKc(ptr noundef nonnull align 8 dereferenceable(1936) %this, ptr noundef %endpoint_uri_) local_unnamed_addr #0 align 2 personality ptr @__gxx_personality_v0 {
entry:
  %sync_lock = alloca %"struct.zmq::scoped_optional_lock_t", align 8
  %_sync = getelementptr inbounds i8, ptr %this, i64 1480
  store ptr %_sync, ptr %sync_lock, align 8
  %call.i.i = tail call i32 @pthread_mutex_lock(ptr noundef nonnull %_sync) #9
  %tobool.not.i.i = icmp eq i32 %call.i.i, 0
  br i1 %tobool.not.i.i, label %_ZN3zmq22scoped_optional_lock_tC2EPNS_7mutex_tE.exit, label %if.then.i.i

if.then.i.i:                                      ; preds = %entry
  %call2.i.i = tail call ptr @strerror(i32 noundef %call.i.i) #9
  %0 = load ptr, ptr @stderr, align 8
  %call3.i.i = tail call i32 (ptr, ptr, ...) @fprintf(ptr noundef %0, ptr noundef nonnull @.str, ptr noundef %call2.i.i, ptr noundef nonnull @.str.1, i32 noundef 109) #10
  %1 = load ptr, ptr @stderr, align 8
  %call4.i.i = tail call i32 @fflush(ptr noundef %1)
  tail call void @_ZN3zmq9zmq_abortEPKc(ptr noundef %call2.i.i)
  br label %_ZN3zmq22scoped_optional_lock_tC2EPNS_7mutex_tE.exit

_ZN3zmq22scoped_optional_lock_tC2EPNS_7mutex_tE.exit: ; preds = %entry, %if.then.i.i
  %immediate = getelementptr inbounds i8, ptr %this, i64 388
  %2 = load i32, ptr %immediate, align 4
  %cmp = icmp eq i32 %2, 1
  br i1 %cmp, label %if.then, label %if.end

if.then:                                          ; preds = %_ZN3zmq22scoped_optional_lock_tC2EPNS_7mutex_tE.exit
  %call = tail call ptr @__errno_location() #11
  store i32 14, ptr %call, align 4
  br label %if.then.i

if.end:                                           ; preds = %_ZN3zmq22scoped_optional_lock_tC2EPNS_7mutex_tE.exit
  %call2 = invoke noundef i32 @_ZN3zmq13socket_base_t16connect_internalEPKc(ptr noundef nonnull align 8 dereferenceable(1825) %this, ptr noundef %endpoint_uri_)
          to label %invoke.cont unwind label %lpad

invoke.cont:                                      ; preds = %if.end
  %cmp3.not = icmp eq i32 %call2, 0
  br i1 %cmp3.not, label %if.end5, label %if.then.i

lpad:                                             ; preds = %if.end
  %3 = landingpad { ptr, i32 }
          cleanup
  call void @_ZN3zmq22scoped_optional_lock_tD2Ev(ptr noundef nonnull align 8 dereferenceable(8) %sync_lock) #9
  resume { ptr, i32 } %3

if.end5:                                          ; preds = %invoke.cont
  %_peer_last_routing_id = getelementptr inbounds i8, ptr %this, i64 1932
  %4 = load i32, ptr %_peer_last_routing_id, align 4
  br label %if.then.i

if.then.i:                                        ; preds = %if.then, %if.end5, %invoke.cont
  %retval.0 = phi i32 [ 0, %if.then ], [ %4, %if.end5 ], [ 0, %invoke.cont ]
  %call.i.i1 = tail call i32 @pthread_mutex_unlock(ptr noundef nonnull %_sync) #9
  %tobool.not.i.i2 = icmp eq i32 %call.i.i1, 0
  br i1 %tobool.not.i.i2, label %_ZN3zmq22scoped_optional_lock_tD2Ev.exit, label %if.then.i.i3

if.then.i.i3:                                     ; preds = %if.then.i
  %call2.i.i4 = tail call ptr @strerror(i32 noundef %call.i.i1) #9
  %5 = load ptr, ptr @stderr, align 8
  %call3.i.i5 = tail call i32 (ptr, ptr, ...) @fprintf(ptr noundef %5, ptr noundef nonnull @.str, ptr noundef %call2.i.i4, ptr noundef nonnull @.str.1, i32 noundef 125) #10
  %6 = load ptr, ptr @stderr, align 8
  %call4.i.i6 = tail call i32 @fflush(ptr noundef %6)
  invoke void @_ZN3zmq9zmq_abortEPKc(ptr noundef %call2.i.i4)
          to label %_ZN3zmq22scoped_optional_lock_tD2Ev.exit unwind label %terminate.lpad.i

terminate.lpad.i:                                 ; preds = %if.then.i.i3
  %7 = landingpad { ptr, i32 }
          catch ptr null
  %8 = extractvalue { ptr, i32 } %7, 0
  tail call void @__clang_call_terminate(ptr %8) #12
  unreachable

_ZN3zmq22scoped_optional_lock_tD2Ev.exit:         ; preds = %if.then.i, %if.then.i.i3
  ret i32 %retval.0
}